; Function Attrs: mustprogress uwtable
define hidden noundef zeroext i1 @_ZNK3sat6solver10can_deleteERKNS_6clauseE(ptr noundef nonnull align 8 dereferenceable(4408) %this, ptr noundef nonnull readonly align 4 dereferenceable(20) %c) local_unnamed_addr #4 align 2 {
entry:
  %m_reinit_stack.i = getelementptr inbounds i8, ptr %c, i64 16
  %bf.load.i = load i32, ptr %m_reinit_stack.i, align 4
  %0 = and i32 %bf.load.i, 32
  %tobool.i.not = icmp eq i32 %0, 0
  br i1 %tobool.i.not, label %if.end, label %return

if.end:                                           ; preds = %entry
  %m_lits.i = getelementptr inbounds i8, ptr %c, i64 20
  %1 = load i32, ptr %m_lits.i, align 4
  %m_assignment.i = getelementptr inbounds i8, ptr %this, i64 3440
  %2 = load ptr, ptr %m_assignment.i, align 8
  %idxprom.i.i = zext i32 %1 to i64
  %arrayidx.i.i = getelementptr inbounds i32, ptr %2, i64 %idxprom.i.i
  %3 = load i32, ptr %arrayidx.i.i, align 4
  %cmp.not = icmp eq i32 %3, 1
  br i1 %cmp.not, label %if.end5, label %return

if.end5:                                          ; preds = %if.end
  %m_justification = getelementptr inbounds i8, ptr %this, i64 3448
  %shr.i = lshr i32 %1, 1
  %4 = load ptr, ptr %m_justification, align 8
  %idxprom.i = zext nneg i32 %shr.i to i64
  %arrayidx.i = getelementptr inbounds %"class.sat::justification", ptr %4, i64 %idxprom.i
  %m_val2.i = getelementptr inbounds i8, ptr %arrayidx.i, i64 16
  %5 = load i32, ptr %m_val2.i, align 8
  %cmp.i = icmp eq i32 %5, 2
  br i1 %cmp.i, label %lor.rhs, label %return

lor.rhs:                                          ; preds = %if.end5
  %m_cls_allocator.i = getelementptr inbounds i8, ptr %this, i64 1216
  %m_cls_allocator_idx.i = getelementptr inbounds i8, ptr %this, i64 2352
  %6 = load i8, ptr %m_cls_allocator_idx.i, align 8
  %7 = and i8 %6, 1
  %idxprom.i4 = zext nneg i8 %7 to i64
  %arrayidx.i5 = getelementptr inbounds [2 x %"class.sat::clause_allocator"], ptr %m_cls_allocator.i, i64 0, i64 %idxprom.i4
  %m_val1.i = getelementptr inbounds i8, ptr %arrayidx.i, i64 8
  %8 = load i64, ptr %m_val1.i, align 8
  %call11 = tail call noundef ptr @_ZNK3sat16clause_allocator10get_clauseEm(ptr noundef nonnull align 8 dereferenceable(568) %arrayidx.i5, i64 noundef %8)
  %cmp12 = icmp ne ptr %call11, %c
  br label %return

return:                                           ; preds = %if.end5, %lor.rhs, %if.end, %entry
  %retval.0 = phi i1 [ false, %entry ], [ true, %if.end ], [ true, %if.end5 ], [ %cmp12, %lor.rhs ]
  ret i1 %retval.0
}